target datalayout = "e-m:e-p270:32:32-p271:32:32-p272:64:64-i64:64-i128:128-f80:128-n8:16:32:64-S128"
target triple = "x86_64-pc-linux-gnu"

%struct.ObjectAddress = type { i32, i32, i32 }
%struct.RelationData = type { %struct.RelFileLocator, ptr, i32, i32, i8, i8, i8, i8, i8, i32, i32, i32, i32, ptr, ptr, i32, %struct.LockInfoData, ptr, ptr, ptr, ptr, ptr, i8, ptr, ptr, ptr, ptr, ptr, ptr, i32, ptr, i8, ptr, ptr, i32, i8, i32, ptr, i8, ptr, ptr, ptr, ptr, ptr, ptr, ptr, i32, ptr, ptr, ptr, ptr, ptr, ptr, ptr, ptr, ptr, ptr, ptr, ptr, ptr, ptr, ptr, ptr, ptr, ptr, ptr, i32, i8, ptr }
%struct.RelFileLocator = type { i32, i32, i32 }
%struct.LockInfoData = type { %struct.LockRelId }
%struct.LockRelId = type { i32, i32 }
%struct.FormData_pg_class = type { i32, %struct.nameData, i32, i32, i32, i32, i32, i32, i32, i32, float, i32, i32, i8, i8, i8, i8, i16, i16, i8, i8, i8, i8, i8, i8, i8, i8, i32, i32, i32 }
%struct.nameData = type { [64 x i8] }
%struct.ForEachState = type { ptr, i32 }
%struct.List = type { i32, i32, i32, ptr, [0 x %union.ListCell] }
%union.ListCell = type { ptr }
%struct.PublicationRelInfo = type { ptr, ptr, ptr }

@object_access_hook = external global ptr, align 8
@InvalidObjectAddress = external constant %struct.ObjectAddress, align 4

; Function Attrs: nounwind uwtable
define internal void @PublicationAddTables(i32 noundef %0, ptr noundef %1, i1 noundef zeroext %2, ptr noundef %3) #0 {
  %5 = alloca i32, align 4
  %6 = alloca ptr, align 8
  %7 = alloca i8, align 1
  %8 = alloca ptr, align 8
  %9 = alloca ptr, align 8
  %10 = alloca %struct.ForEachState, align 8
  %11 = alloca ptr, align 8
  %12 = alloca ptr, align 8
  %13 = alloca %struct.ObjectAddress, align 4
  %14 = alloca %struct.ObjectAddress, align 4
  %15 = alloca { i64, i32 }, align 8
  %16 = alloca { i64, i32 }, align 4
  %17 = alloca { i64, i32 }, align 4
  store i32 %0, ptr %5, align 4
  store ptr %1, ptr %6, align 8
  %18 = zext i1 %2 to i8
  store i8 %18, ptr %7, align 1
  store ptr %3, ptr %8, align 8
  call void @llvm.lifetime.start.p0(i64 8, ptr %9) #10
  call void @llvm.lifetime.start.p0(i64 16, ptr %10) #10
  %19 = getelementptr inbounds nuw %struct.ForEachState, ptr %10, i32 0, i32 0
  %20 = load ptr, ptr %6, align 8
  store ptr %20, ptr %19, align 8
  %21 = getelementptr inbounds nuw %struct.ForEachState, ptr %10, i32 0, i32 1
  store i32 0, ptr %21, align 8
  %22 = getelementptr i8, ptr %10, i64 12
  call void @llvm.memset.p0.i64(ptr align 4 %22, i8 0, i64 4, i1 false)
  br label %23

23:                                               ; preds = %101, %4
  %24 = getelementptr inbounds nuw %struct.ForEachState, ptr %10, i32 0, i32 0
  %25 = load ptr, ptr %24, align 8
  %26 = icmp ne ptr %25, null
  br i1 %26, label %27, label %44

27:                                               ; preds = %23
  %28 = getelementptr inbounds nuw %struct.ForEachState, ptr %10, i32 0, i32 1
  %29 = load i32, ptr %28, align 8
  %30 = getelementptr inbounds nuw %struct.ForEachState, ptr %10, i32 0, i32 0
  %31 = load ptr, ptr %30, align 8
  %32 = getelementptr inbounds nuw %struct.List, ptr %31, i32 0, i32 1
  %33 = load i32, ptr %32, align 4
  %34 = icmp slt i32 %29, %33
  br i1 %34, label %35, label %44

35:                                               ; preds = %27
  %36 = getelementptr inbounds nuw %struct.ForEachState, ptr %10, i32 0, i32 0
  %37 = load ptr, ptr %36, align 8
  %38 = getelementptr inbounds nuw %struct.List, ptr %37, i32 0, i32 3
  %39 = load ptr, ptr %38, align 8
  %40 = getelementptr inbounds nuw %struct.ForEachState, ptr %10, i32 0, i32 1
  %41 = load i32, ptr %40, align 8
  %42 = sext i32 %41 to i64
  %43 = getelementptr inbounds %union.ListCell, ptr %39, i64 %42
  store ptr %43, ptr %9, align 8
  br label %45

44:                                               ; preds = %27, %23
  store ptr null, ptr %9, align 8
  br label %45

45:                                               ; preds = %44, %35
  %46 = phi i32 [ 1, %35 ], [ 0, %44 ]
  %47 = icmp ne i32 %46, 0
  br i1 %47, label %49, label %48

48:                                               ; preds = %45
  call void @llvm.lifetime.end.p0(i64 16, ptr %10) #10
  br label %105

49:                                               ; preds = %45
  call void @llvm.lifetime.start.p0(i64 8, ptr %11) #10
  %50 = load ptr, ptr %9, align 8
  %51 = load ptr, ptr %50, align 8
  store ptr %51, ptr %11, align 8
  call void @llvm.lifetime.start.p0(i64 8, ptr %12) #10
  %52 = load ptr, ptr %11, align 8
  %53 = getelementptr inbounds nuw %struct.PublicationRelInfo, ptr %52, i32 0, i32 0
  %54 = load ptr, ptr %53, align 8
  store ptr %54, ptr %12, align 8
  call void @llvm.lifetime.start.p0(i64 12, ptr %13) #10
  %55 = load ptr, ptr %12, align 8
  %56 = getelementptr inbounds nuw %struct.RelationData, ptr %55, i32 0, i32 15
  %57 = load i32, ptr %56, align 8
  %58 = call i32 @GetUserId()
  %59 = call zeroext i1 @object_ownercheck(i32 noundef 1259, i32 noundef %57, i32 noundef %58)
  br i1 %59, label %73, label %60

60:                                               ; preds = %49
  %61 = load ptr, ptr %12, align 8
  %62 = getelementptr inbounds nuw %struct.RelationData, ptr %61, i32 0, i32 13
  %63 = load ptr, ptr %62, align 8
  %64 = getelementptr inbounds nuw %struct.FormData_pg_class, ptr %63, i32 0, i32 16
  %65 = load i8, ptr %64, align 1
  %66 = call i32 @get_relkind_objtype(i8 noundef signext %65)
  %67 = load ptr, ptr %12, align 8
  %68 = getelementptr inbounds nuw %struct.RelationData, ptr %67, i32 0, i32 13
  %69 = load ptr, ptr %68, align 8
  %70 = getelementptr inbounds nuw %struct.FormData_pg_class, ptr %69, i32 0, i32 1
  %71 = getelementptr inbounds nuw %struct.nameData, ptr %70, i32 0, i32 0
  %72 = getelementptr inbounds [64 x i8], ptr %71, i64 0, i64 0
  call void @aclcheck_error(i32 noundef 2, i32 noundef %66, ptr noundef %72)
  br label %73

73:                                               ; preds = %60, %49
  call void @llvm.lifetime.start.p0(i64 12, ptr %14) #10
  %74 = load i32, ptr %5, align 4
  %75 = load ptr, ptr %11, align 8
  %76 = load i8, ptr %7, align 1, !range !4, !noundef !5
  %77 = trunc i8 %76 to i1
  %78 = call { i64, i32 } @publication_add_relation(i32 noundef %74, ptr noundef %75, i1 noundef zeroext %77)
  store { i64, i32 } %78, ptr %15, align 8
  call void @llvm.memcpy.p0.p0.i64(ptr align 4 %14, ptr align 8 %15, i64 12, i1 false)
  call void @llvm.memcpy.p0.p0.i64(ptr align 4 %13, ptr align 4 %14, i64 12, i1 false)
  call void @llvm.lifetime.end.p0(i64 12, ptr %14) #10
  %79 = load ptr, ptr %8, align 8
  %80 = icmp ne ptr %79, null
  br i1 %80, label %81, label %100

81:                                               ; preds = %73
  %82 = load ptr, ptr %8, align 8
  call void @llvm.memcpy.p0.p0.i64(ptr align 4 %16, ptr align 4 %13, i64 12, i1 false)
  %83 = getelementptr inbounds nuw { i64, i32 }, ptr %16, i32 0, i32 0
  %84 = load i64, ptr %83, align 4
  %85 = getelementptr inbounds nuw { i64, i32 }, ptr %16, i32 0, i32 1
  %86 = load i32, ptr %85, align 4
  call void @llvm.memcpy.p0.p0.i64(ptr align 4 %17, ptr align 4 @InvalidObjectAddress, i64 12, i1 false)
  %87 = getelementptr inbounds nuw { i64, i32 }, ptr %17, i32 0, i32 0
  %88 = load i64, ptr %87, align 4
  %89 = getelementptr inbounds nuw { i64, i32 }, ptr %17, i32 0, i32 1
  %90 = load i32, ptr %89, align 4
  call void @EventTriggerCollectSimpleCommand(i64 %84, i32 %86, i64 %88, i32 %90, ptr noundef %82)
  br label %91

91:                                               ; preds = %81
  %92 = load ptr, ptr @object_access_hook, align 8
  %93 = icmp ne ptr %92, null
  br i1 %93, label %94, label %97

94:                                               ; preds = %91
  %95 = getelementptr inbounds nuw %struct.ObjectAddress, ptr %13, i32 0, i32 1
  %96 = load i32, ptr %95, align 4
  call void @RunObjectPostCreateHook(i32 noundef 6106, i32 noundef %96, i32 noundef 0, i1 noundef zeroext false)
  br label %97

97:                                               ; preds = %94, %91
  br label %98

98:                                               ; preds = %97
  br label %99

99:                                               ; preds = %98
  br label %100

100:                                              ; preds = %99, %73
  call void @llvm.lifetime.end.p0(i64 12, ptr %13) #10
  call void @llvm.lifetime.end.p0(i64 8, ptr %12) #10
  call void @llvm.lifetime.end.p0(i64 8, ptr %11) #10
  br label %101

101:                                              ; preds = %100
  %102 = getelementptr inbounds nuw %struct.ForEachState, ptr %10, i32 0, i32 1
  %103 = load i32, ptr %102, align 8
  %104 = add i32 %103, 1
  store i32 %104, ptr %102, align 8
  br label %23, !llvm.loop !15

105:                                              ; preds = %48
  call void @llvm.lifetime.end.p0(i64 8, ptr %9) #10
  ret void
}