; Function Attrs: nounwind uwtable
define internal fastcc void @PublicationAddTables(i32 noundef %0, ptr noundef readonly captures(address_is_null) %1, i1 noundef zeroext %2, ptr noundef %3) unnamed_addr #0 {
  %5 = getelementptr inbounds nuw i8, ptr %1, i64 4
  %.not = icmp eq ptr %1, null
  br i1 %.not, label %._crit_edge, label %.lr.ph

.lr.ph:                                           ; preds = %4
  %6 = getelementptr inbounds nuw i8, ptr %1, i64 16
  %.not24 = icmp eq ptr %3, null
  %.sroa.0.0.copyload = load i64, ptr @InvalidObjectAddress, align 4
  %.sroa.2.0.copyload = load i32, ptr getelementptr inbounds nuw (i8, ptr @InvalidObjectAddress, i64 8), align 4
  %7 = load i32, ptr %5, align 4
  %8 = icmp sgt i32 %7, 0
  br i1 %.not24, label %.lr.ph.split.us.split, label %.lr.ph.split.split

.lr.ph.split.us.split:                            ; preds = %.lr.ph
  br i1 %8, label %.lr.ph35, label %._crit_edge

.lr.ph35:                                         ; preds = %.lr.ph.split.us.split, %25
  %indvars.iv38 = phi i64 [ %indvars.iv.next39, %25 ], [ 0, %.lr.ph.split.us.split ]
  %9 = load ptr, ptr %6, align 8
  %10 = getelementptr inbounds nuw %union.ListCell, ptr %9, i64 %indvars.iv38
  %11 = load ptr, ptr %10, align 8
  %12 = load ptr, ptr %11, align 8
  %13 = getelementptr inbounds nuw i8, ptr %12, i64 72
  %14 = load i32, ptr %13, align 8
  %15 = tail call i32 @GetUserId() #8
  %16 = tail call zeroext i1 @object_ownercheck(i32 noundef 1259, i32 noundef %14, i32 noundef %15) #8
  br i1 %16, label %25, label %17

17:                                               ; preds = %.lr.ph35
  %18 = getelementptr inbounds nuw i8, ptr %12, i64 56
  %19 = load ptr, ptr %18, align 8
  %20 = getelementptr inbounds nuw i8, ptr %19, i64 115
  %21 = load i8, ptr %20, align 1
  %22 = tail call i32 @get_relkind_objtype(i8 noundef signext %21) #8
  %23 = load ptr, ptr %18, align 8
  %24 = getelementptr inbounds nuw i8, ptr %23, i64 4
  tail call void @aclcheck_error(i32 noundef 2, i32 noundef %22, ptr noundef nonnull %24) #8
  br label %25

25:                                               ; preds = %17, %.lr.ph35
  %26 = tail call { i64, i32 } @publication_add_relation(i32 noundef %0, ptr noundef nonnull %11, i1 noundef zeroext %2) #8
  %indvars.iv.next39 = add nuw nsw i64 %indvars.iv38, 1
  %27 = load i32, ptr %5, align 4
  %28 = sext i32 %27 to i64
  %29 = icmp slt i64 %indvars.iv.next39, %28
  br i1 %29, label %.lr.ph35, label %._crit_edge

.lr.ph.split.split:                               ; preds = %.lr.ph
  br i1 %8, label %.lr.ph33, label %._crit_edge

._crit_edge:                                      ; preds = %50, %25, %.lr.ph.split.us.split, %.lr.ph.split.split, %4
  ret void

.lr.ph33:                                         ; preds = %.lr.ph.split.split, %50
  %indvars.iv = phi i64 [ %indvars.iv.next, %50 ], [ 0, %.lr.ph.split.split ]
  %30 = load ptr, ptr %6, align 8
  %31 = getelementptr inbounds nuw %union.ListCell, ptr %30, i64 %indvars.iv
  %32 = load ptr, ptr %31, align 8
  %33 = load ptr, ptr %32, align 8
  %34 = getelementptr inbounds nuw i8, ptr %33, i64 72
  %35 = load i32, ptr %34, align 8
  %36 = tail call i32 @GetUserId() #8
  %37 = tail call zeroext i1 @object_ownercheck(i32 noundef 1259, i32 noundef %35, i32 noundef %36) #8
  br i1 %37, label %46, label %38

38:                                               ; preds = %.lr.ph33
  %39 = getelementptr inbounds nuw i8, ptr %33, i64 56
  %40 = load ptr, ptr %39, align 8
  %41 = getelementptr inbounds nuw i8, ptr %40, i64 115
  %42 = load i8, ptr %41, align 1
  %43 = tail call i32 @get_relkind_objtype(i8 noundef signext %42) #8
  %44 = load ptr, ptr %39, align 8
  %45 = getelementptr inbounds nuw i8, ptr %44, i64 4
  tail call void @aclcheck_error(i32 noundef 2, i32 noundef %43, ptr noundef nonnull %45) #8
  br label %46

46:                                               ; preds = %38, %.lr.ph33
  %47 = tail call { i64, i32 } @publication_add_relation(i32 noundef %0, ptr noundef nonnull %32, i1 noundef zeroext %2) #8
  %.fca.0.extract = extractvalue { i64, i32 } %47, 0
  %.fca.1.extract = extractvalue { i64, i32 } %47, 1
  tail call void @EventTriggerCollectSimpleCommand(i64 %.fca.0.extract, i32 %.fca.1.extract, i64 %.sroa.0.0.copyload, i32 %.sroa.2.0.copyload, ptr noundef nonnull %3) #8
  %48 = load ptr, ptr @object_access_hook, align 8
  %.not25 = icmp eq ptr %48, null
  br i1 %.not25, label %50, label %49

49:                                               ; preds = %46
  %.sroa.06.4.extract.shift = lshr i64 %.fca.0.extract, 32
  %.sroa.06.4.extract.trunc = trunc nuw i64 %.sroa.06.4.extract.shift to i32
  tail call void @RunObjectPostCreateHook(i32 noundef 6106, i32 noundef %.sroa.06.4.extract.trunc, i32 noundef 0, i1 noundef zeroext false) #8
  br label %50

50:                                               ; preds = %46, %49
  %indvars.iv.next = add nuw nsw i64 %indvars.iv, 1
  %51 = load i32, ptr %5, align 4
  %52 = sext i32 %51 to i64
  %53 = icmp slt i64 %indvars.iv.next, %52
  br i1 %53, label %.lr.ph33, label %._crit_edge
}